; Function Attrs: inlinehint nounwind sspstrong uwtable
define internal fastcc void @MEMO_V1_SET(ptr noundef initializes((16, 24)) %0, i64 noundef %1) unnamed_addr #7 {
  %3 = getelementptr inbounds nuw i8, ptr %0, i64 16
  store i64 %1, ptr %3, align 8, !tbaa !7
  %4 = icmp eq i64 %1, 0
  %5 = and i64 %1, 7
  %6 = icmp ne i64 %5, 0
  %7 = or i1 %4, %6
  br i1 %7, label %rb_obj_write.exit, label %8

8:                                                ; preds = %2
  %9 = ptrtoint ptr %0 to i64
  tail call void @rb_gc_writebarrier(i64 noundef %9, i64 noundef %1) #14
  br label %rb_obj_write.exit

rb_obj_write.exit:                                ; preds = %2, %8
  ret void
}